target datalayout = "e-m:e-p270:32:32-p271:32:32-p272:64:64-i64:64-i128:128-f80:128-n8:16:32:64-S128"
target triple = "x86_64-pc-linux-gnu"

%"class.google::protobuf::io::FileInputStream::CopyingFileInputStream" = type <{ %"class.google::protobuf::io::CopyingInputStream", i32, i8, i8, [2 x i8], i32, i8, [3 x i8] }>
%"class.google::protobuf::io::CopyingInputStream" = type { ptr }
%"class.google::protobuf::internal::LogMessage" = type { i32, ptr, i32, %"class.std::__cxx11::basic_string" }
%"class.std::__cxx11::basic_string" = type { %"struct.std::__cxx11::basic_string<char>::_Alloc_hider", i64, %union.anon }
%"struct.std::__cxx11::basic_string<char>::_Alloc_hider" = type { ptr }
%union.anon = type { i64, [8 x i8] }
%"class.google::protobuf::internal::LogFinisher" = type { i8 }

@.str = private unnamed_addr constant [157 x i8] c"generated/home/dtcxzyw/WorkSpace/Projects/compilers/llvm-opt-benchmark/bench/opencv/opencv/3rdparty/protobuf/src/google/protobuf/io/zero_copy_stream_impl.cc\00", align 1
@.str.2 = private unnamed_addr constant [28 x i8] c"CHECK failed: !is_closed_: \00", align 1

; Function Attrs: mustprogress uwtable
define hidden noundef i32 @_ZN6google8protobuf2io15FileInputStream22CopyingFileInputStream4ReadEPvi(ptr noundef nonnull align 8 dereferenceable(21) %0, ptr noundef %1, i32 noundef %2) unnamed_addr #4 align 2 personality ptr @__gxx_personality_v0 {
  %4 = alloca ptr, align 8
  %5 = alloca ptr, align 8
  %6 = alloca i32, align 4
  %7 = alloca %"class.google::protobuf::internal::LogMessage", align 8
  %8 = alloca i1, align 1
  %9 = alloca i1, align 1
  %10 = alloca ptr, align 8
  %11 = alloca i32, align 4
  %12 = alloca %"class.google::protobuf::internal::LogFinisher", align 1
  %13 = alloca i32, align 4
  store ptr %0, ptr %4, align 8, !tbaa !14
  store ptr %1, ptr %5, align 8, !tbaa !34
  store i32 %2, ptr %6, align 4, !tbaa !8
  %14 = load ptr, ptr %4, align 8
  %15 = getelementptr inbounds nuw %"class.google::protobuf::io::FileInputStream::CopyingFileInputStream", ptr %14, i32 0, i32 3
  %16 = load i8, ptr %15, align 1, !tbaa !16, !range !20, !noundef !21
  %17 = trunc i8 %16 to i1
  store i1 false, ptr %8, align 1
  store i1 false, ptr %9, align 1
  call void @llvm.lifetime.start.p0(i64 1, ptr %12) #3
  br i1 %17, label %19, label %18

18:                                               ; preds = %3
  br label %23

19:                                               ; preds = %3
  call void @llvm.lifetime.start.p0(i64 56, ptr %7) #3
  store i1 true, ptr %8, align 1
  call void @_ZN6google8protobuf8internal10LogMessageC1ENS0_8LogLevelEPKci(ptr noundef nonnull align 8 dereferenceable(56) %7, i32 noundef 3, ptr noundef @.str, i32 noundef 138)
  store i1 true, ptr %9, align 1
  %20 = invoke noundef nonnull align 8 dereferenceable(56) ptr @_ZN6google8protobuf8internal10LogMessagelsEPKc(ptr noundef nonnull align 8 dereferenceable(56) %7, ptr noundef @.str.2)
          to label %21 unwind label %54

21:                                               ; preds = %19
  invoke void @_ZN6google8protobuf8internal11LogFinisheraSERNS1_10LogMessageE(ptr noundef nonnull align 1 dereferenceable(1) %12, ptr noundef nonnull align 8 dereferenceable(56) %20)
          to label %22 unwind label %58

22:                                               ; preds = %21
  br label %23

23:                                               ; preds = %22, %18
  call void @llvm.lifetime.end.p0(i64 1, ptr %12) #3
  %24 = load i1, ptr %9, align 1
  br i1 %24, label %25, label %26

25:                                               ; preds = %23
  call void @_ZN6google8protobuf8internal10LogMessageD1Ev(ptr noundef nonnull align 8 dereferenceable(56) %7) #3
  br label %26

26:                                               ; preds = %25, %23
  %27 = load i1, ptr %8, align 1
  br i1 %27, label %28, label %29

28:                                               ; preds = %26
  call void @llvm.lifetime.end.p0(i64 56, ptr %7) #3
  br label %29

29:                                               ; preds = %28, %26
  call void @llvm.lifetime.start.p0(i64 4, ptr %13) #3
  br label %30

30:                                               ; preds = %45, %29
  %31 = getelementptr inbounds nuw %"class.google::protobuf::io::FileInputStream::CopyingFileInputStream", ptr %14, i32 0, i32 1
  %32 = load i32, ptr %31, align 8, !tbaa !22
  %33 = load ptr, ptr %5, align 8, !tbaa !34
  %34 = load i32, ptr %6, align 4, !tbaa !8
  %35 = sext i32 %34 to i64
  %36 = call i64 @read(i32 noundef %32, ptr noundef %33, i64 noundef %35)
  %37 = trunc i64 %36 to i32
  store i32 %37, ptr %13, align 4, !tbaa !8
  br label %38

38:                                               ; preds = %30
  %39 = load i32, ptr %13, align 4, !tbaa !8
  %40 = icmp slt i32 %39, 0
  br i1 %40, label %41, label %45

41:                                               ; preds = %38
  %42 = call ptr @__errno_location() #12
  %43 = load i32, ptr %42, align 4, !tbaa !8
  %44 = icmp eq i32 %43, 4
  br label %45

45:                                               ; preds = %41, %38
  %46 = phi i1 [ false, %38 ], [ %44, %41 ]
  br i1 %46, label %30, label %47, !llvm.loop !35

47:                                               ; preds = %45
  %48 = load i32, ptr %13, align 4, !tbaa !8
  %49 = icmp slt i32 %48, 0
  br i1 %49, label %50, label %69

50:                                               ; preds = %47
  %51 = call ptr @__errno_location() #12
  %52 = load i32, ptr %51, align 4, !tbaa !8
  %53 = getelementptr inbounds nuw %"class.google::protobuf::io::FileInputStream::CopyingFileInputStream", ptr %14, i32 0, i32 5
  store i32 %52, ptr %53, align 8, !tbaa !23
  br label %69

54:                                               ; preds = %19
  %55 = landingpad { ptr, i32 }
          cleanup
  %56 = extractvalue { ptr, i32 } %55, 0
  store ptr %56, ptr %10, align 8
  %57 = extractvalue { ptr, i32 } %55, 1
  store i32 %57, ptr %11, align 4
  br label %62

58:                                               ; preds = %21
  %59 = landingpad { ptr, i32 }
          cleanup
  %60 = extractvalue { ptr, i32 } %59, 0
  store ptr %60, ptr %10, align 8
  %61 = extractvalue { ptr, i32 } %59, 1
  store i32 %61, ptr %11, align 4
  call void @llvm.lifetime.end.p0(i64 1, ptr %12) #3
  br label %62

62:                                               ; preds = %58, %54
  %63 = load i1, ptr %9, align 1
  br i1 %63, label %64, label %65

64:                                               ; preds = %62
  call void @_ZN6google8protobuf8internal10LogMessageD1Ev(ptr noundef nonnull align 8 dereferenceable(56) %7) #3
  br label %65

65:                                               ; preds = %64, %62
  %66 = load i1, ptr %8, align 1
  br i1 %66, label %67, label %68

67:                                               ; preds = %65
  call void @llvm.lifetime.end.p0(i64 56, ptr %7) #3
  br label %68

68:                                               ; preds = %67, %65
  br label %71

69:                                               ; preds = %50, %47
  %70 = load i32, ptr %13, align 4, !tbaa !8
  call void @llvm.lifetime.end.p0(i64 4, ptr %13) #3
  ret i32 %70

71:                                               ; preds = %68
  %72 = load ptr, ptr %10, align 8
  %73 = load i32, ptr %11, align 4
  %74 = insertvalue { ptr, i32 } poison, ptr %72, 0
  %75 = insertvalue { ptr, i32 } %74, i32 %73, 1
  resume { ptr, i32 } %75
}