; Function Attrs: mustprogress uwtable
define hidden noundef i32 @_ZN6google8protobuf2io15FileInputStream22CopyingFileInputStream4ReadEPvi(ptr noundef nonnull align 8 captures(none) dereferenceable(21) %0, ptr noundef captures(none) %1, i32 noundef %2) unnamed_addr #3 align 2 personality ptr @__gxx_personality_v0 {
  %4 = alloca %"class.google::protobuf::internal::LogMessage", align 8
  %5 = alloca %"class.google::protobuf::internal::LogFinisher", align 1
  %6 = getelementptr inbounds nuw i8, ptr %0, i64 13
  %7 = load i8, ptr %6, align 1, !tbaa !13, !range !16, !noundef !17
  %8 = trunc nuw i8 %7 to i1
  call void @llvm.lifetime.start.p0(i64 1, ptr nonnull %5) #15
  br i1 %8, label %9, label %12

9:                                                ; preds = %3
  call void @llvm.lifetime.start.p0(i64 56, ptr nonnull %4) #15
  call void @_ZN6google8protobuf8internal10LogMessageC1ENS0_8LogLevelEPKci(ptr noundef nonnull align 8 dereferenceable(56) %4, i32 noundef 3, ptr noundef nonnull @.str, i32 noundef 138)
  %10 = invoke noundef nonnull align 8 dereferenceable(56) ptr @_ZN6google8protobuf8internal10LogMessagelsEPKc(ptr noundef nonnull align 8 dereferenceable(56) %4, ptr noundef nonnull @.str.2)
          to label %11 unwind label %26

11:                                               ; preds = %9
  invoke void @_ZN6google8protobuf8internal11LogFinisheraSERNS1_10LogMessageE(ptr noundef nonnull align 1 dereferenceable(1) %5, ptr noundef nonnull align 8 dereferenceable(56) %10)
          to label %13 unwind label %28

12:                                               ; preds = %3
  call void @llvm.lifetime.end.p0(i64 1, ptr nonnull %5) #15
  br label %.critedge18

13:                                               ; preds = %11
  call void @llvm.lifetime.end.p0(i64 1, ptr nonnull %5) #15
  call void @_ZN6google8protobuf8internal10LogMessageD1Ev(ptr noundef nonnull align 8 dereferenceable(56) %4) #15
  call void @llvm.lifetime.end.p0(i64 56, ptr nonnull %4) #15
  br label %.critedge18

.critedge18:                                      ; preds = %12, %13
  %14 = getelementptr inbounds nuw i8, ptr %0, i64 8
  %15 = sext i32 %2 to i64
  br label %16

16:                                               ; preds = %21, %.critedge18
  %17 = load i32, ptr %14, align 8, !tbaa !6
  %18 = call i64 @read(i32 noundef %17, ptr noundef %1, i64 noundef %15)
  %19 = trunc i64 %18 to i32
  %20 = icmp slt i32 %19, 0
  br i1 %20, label %21, label %.critedge19

21:                                               ; preds = %16
  %22 = tail call ptr @__errno_location() #16
  %23 = load i32, ptr %22, align 4, !tbaa !18
  %24 = icmp eq i32 %23, 4
  br i1 %24, label %16, label %.critedge, !llvm.loop !21

.critedge:                                        ; preds = %21
  %25 = getelementptr inbounds nuw i8, ptr %0, i64 16
  store i32 %23, ptr %25, align 8, !tbaa !14
  br label %.critedge19

26:                                               ; preds = %9
  %27 = landingpad { ptr, i32 }
          cleanup
  br label %30

28:                                               ; preds = %11
  %29 = landingpad { ptr, i32 }
          cleanup
  call void @llvm.lifetime.end.p0(i64 1, ptr nonnull %5) #15
  br label %30

30:                                               ; preds = %26, %28
  %.pn = phi { ptr, i32 } [ %29, %28 ], [ %27, %26 ]
  call void @_ZN6google8protobuf8internal10LogMessageD1Ev(ptr noundef nonnull align 8 dereferenceable(56) %4) #15
  call void @llvm.lifetime.end.p0(i64 56, ptr nonnull %4) #15
  resume { ptr, i32 } %.pn

.critedge19:                                      ; preds = %16, %.critedge
  ret i32 %19
}